target datalayout = "e-m:e-p270:32:32-p271:32:32-p272:64:64-i64:64-i128:128-f80:128-n8:16:32:64-S128"
target triple = "x86_64-pc-linux-gnu"

%struct.SDL_TLSEntry = type { i64, ptr, ptr }

@SDL_generic_TLS_mutex = internal global ptr null, align 8
@SDL_generic_TLS = internal global ptr null, align 8

; Function Attrs: nounwind uwtable
define hidden void @SDL_Generic_QuitTLSData() #0 {
  %1 = alloca ptr, align 8
  %2 = alloca ptr, align 8
  call void @llvm.lifetime.start.p0(i64 8, ptr %1) #6
  br label %3

3:                                                ; preds = %0
  br label %4

4:                                                ; preds = %3
  br label %5

5:                                                ; preds = %4
  %6 = load ptr, ptr @SDL_generic_TLS, align 8
  %7 = icmp ne ptr %6, null
  br i1 %7, label %8, label %25

8:                                                ; preds = %5
  %9 = load ptr, ptr @SDL_generic_TLS_mutex, align 8
  call void @SDL_LockMutex_REAL(ptr noundef %9)
  %10 = load ptr, ptr @SDL_generic_TLS, align 8
  store ptr %10, ptr %1, align 8
  br label %11

11:                                               ; preds = %14, %8
  %12 = load ptr, ptr %1, align 8
  %13 = icmp ne ptr %12, null
  br i1 %13, label %14, label %23

14:                                               ; preds = %11
  call void @llvm.lifetime.start.p0(i64 8, ptr %2) #6
  %15 = load ptr, ptr %1, align 8
  %16 = getelementptr inbounds nuw %struct.SDL_TLSEntry, ptr %15, i32 0, i32 2
  %17 = load ptr, ptr %16, align 8
  store ptr %17, ptr %2, align 8
  %18 = load ptr, ptr %1, align 8
  %19 = getelementptr inbounds nuw %struct.SDL_TLSEntry, ptr %18, i32 0, i32 1
  %20 = load ptr, ptr %19, align 8
  call void @SDL_free_REAL(ptr noundef %20)
  %21 = load ptr, ptr %1, align 8
  call void @SDL_free_REAL(ptr noundef %21)
  %22 = load ptr, ptr %2, align 8
  store ptr %22, ptr %1, align 8
  call void @llvm.lifetime.end.p0(i64 8, ptr %2) #6
  br label %11, !llvm.loop !10

23:                                               ; preds = %11
  store ptr null, ptr @SDL_generic_TLS, align 8
  %24 = load ptr, ptr @SDL_generic_TLS_mutex, align 8
  call void @SDL_UnlockMutex_REAL(ptr noundef %24)
  br label %25

25:                                               ; preds = %23, %5
  %26 = load ptr, ptr @SDL_generic_TLS_mutex, align 8
  %27 = icmp ne ptr %26, null
  br i1 %27, label %28, label %30

28:                                               ; preds = %25
  %29 = load ptr, ptr @SDL_generic_TLS_mutex, align 8
  call void @SDL_DestroyMutex_REAL(ptr noundef %29)
  store ptr null, ptr @SDL_generic_TLS_mutex, align 8
  br label %30

30:                                               ; preds = %28, %25
  call void @llvm.lifetime.end.p0(i64 8, ptr %1) #6
  ret void
}