; Function Attrs: nounwind uwtable
define hidden void @SDL_Generic_QuitTLSData() local_unnamed_addr #0 {
  %1 = load ptr, ptr @SDL_generic_TLS, align 8
  %.not = icmp eq ptr %1, null
  br i1 %.not, label %10, label %2

2:                                                ; preds = %0
  %3 = load ptr, ptr @SDL_generic_TLS_mutex, align 8
  tail call void @SDL_LockMutex_REAL(ptr noundef %3) #6
  %4 = load ptr, ptr @SDL_generic_TLS, align 8
  %.not68 = icmp eq ptr %4, null
  br i1 %.not68, label %._crit_edge, label %.lr.ph

.lr.ph:                                           ; preds = %2, %.lr.ph
  %.09 = phi ptr [ %6, %.lr.ph ], [ %4, %2 ]
  %5 = getelementptr inbounds nuw i8, ptr %.09, i64 16
  %6 = load ptr, ptr %5, align 8
  %7 = getelementptr inbounds nuw i8, ptr %.09, i64 8
  %8 = load ptr, ptr %7, align 8
  tail call void @SDL_free_REAL(ptr noundef %8) #6
  tail call void @SDL_free_REAL(ptr noundef nonnull %.09) #6
  %.not6 = icmp eq ptr %6, null
  br i1 %.not6, label %._crit_edge, label %.lr.ph, !llvm.loop !7

._crit_edge:                                      ; preds = %.lr.ph, %2
  store ptr null, ptr @SDL_generic_TLS, align 8
  %9 = load ptr, ptr @SDL_generic_TLS_mutex, align 8
  tail call void @SDL_UnlockMutex_REAL(ptr noundef %9) #6
  br label %10

10:                                               ; preds = %._crit_edge, %0
  %11 = load ptr, ptr @SDL_generic_TLS_mutex, align 8
  %.not7 = icmp eq ptr %11, null
  br i1 %.not7, label %13, label %12

12:                                               ; preds = %10
  tail call void @SDL_DestroyMutex_REAL(ptr noundef nonnull %11) #6
  store ptr null, ptr @SDL_generic_TLS_mutex, align 8
  br label %13

13:                                               ; preds = %12, %10
  ret void
}